
bin/Release/dev-board.elf:     file format elf32-avr

Sections:
Idx Name          Size      VMA       LMA       File off  Algn
  0 .data         00000010  00800100  00000616  000006aa  2**0
                  CONTENTS, ALLOC, LOAD, DATA
  1 .text         00000616  00000000  00000000  00000094  2**1
                  CONTENTS, ALLOC, LOAD, READONLY, CODE
  2 .bss          000002c5  00800110  00800110  000006ba  2**0
                  ALLOC
  3 .stab         000006b4  00000000  00000000  000006bc  2**2
                  CONTENTS, READONLY, DEBUGGING
  4 .stabstr      00000054  00000000  00000000  00000d70  2**0
                  CONTENTS, READONLY, DEBUGGING

Disassembly of section .text:

00000000 <__vectors>:
   0:	0c 94 34 00 	jmp	0x68	; 0x68 <__ctors_end>
   4:	0c 94 51 00 	jmp	0xa2	; 0xa2 <__bad_interrupt>
   8:	0c 94 51 00 	jmp	0xa2	; 0xa2 <__bad_interrupt>
   c:	0c 94 51 00 	jmp	0xa2	; 0xa2 <__bad_interrupt>
  10:	0c 94 51 00 	jmp	0xa2	; 0xa2 <__bad_interrupt>
  14:	0c 94 51 00 	jmp	0xa2	; 0xa2 <__bad_interrupt>
  18:	0c 94 51 00 	jmp	0xa2	; 0xa2 <__bad_interrupt>
  1c:	0c 94 51 00 	jmp	0xa2	; 0xa2 <__bad_interrupt>
  20:	0c 94 51 00 	jmp	0xa2	; 0xa2 <__bad_interrupt>
  24:	0c 94 51 00 	jmp	0xa2	; 0xa2 <__bad_interrupt>
  28:	0c 94 51 00 	jmp	0xa2	; 0xa2 <__bad_interrupt>
  2c:	0c 94 51 00 	jmp	0xa2	; 0xa2 <__bad_interrupt>
  30:	0c 94 51 00 	jmp	0xa2	; 0xa2 <__bad_interrupt>
  34:	0c 94 51 00 	jmp	0xa2	; 0xa2 <__bad_interrupt>
  38:	0c 94 51 00 	jmp	0xa2	; 0xa2 <__bad_interrupt>
  3c:	0c 94 51 00 	jmp	0xa2	; 0xa2 <__bad_interrupt>
  40:	0c 94 51 00 	jmp	0xa2	; 0xa2 <__bad_interrupt>
  44:	0c 94 51 00 	jmp	0xa2	; 0xa2 <__bad_interrupt>
  48:	0c 94 df 02 	jmp	0x5be	; 0x5be <__vector_18>
  4c:	0c 94 51 00 	jmp	0xa2	; 0xa2 <__bad_interrupt>
  50:	0c 94 51 00 	jmp	0xa2	; 0xa2 <__bad_interrupt>
  54:	0c 94 53 00 	jmp	0xa6	; 0xa6 <__vector_21>
  58:	0c 94 51 00 	jmp	0xa2	; 0xa2 <__bad_interrupt>
  5c:	0c 94 51 00 	jmp	0xa2	; 0xa2 <__bad_interrupt>
  60:	0c 94 51 00 	jmp	0xa2	; 0xa2 <__bad_interrupt>
  64:	0c 94 51 00 	jmp	0xa2	; 0xa2 <__bad_interrupt>

00000068 <__ctors_end>:
  68:	11 24       	eor	r1, r1
  6a:	1f be       	out	0x3f, r1	; 63
  6c:	cf ef       	ldi	r28, 0xFF	; 255
  6e:	d8 e0       	ldi	r29, 0x08	; 8
  70:	de bf       	out	0x3e, r29	; 62
  72:	cd bf       	out	0x3d, r28	; 61

00000074 <__do_copy_data>:
  74:	11 e0       	ldi	r17, 0x01	; 1
  76:	a0 e0       	ldi	r26, 0x00	; 0
  78:	b1 e0       	ldi	r27, 0x01	; 1
  7a:	e6 e1       	ldi	r30, 0x16	; 22
  7c:	f6 e0       	ldi	r31, 0x06	; 6
  7e:	02 c0       	rjmp	.+4      	; 0x84 <.do_copy_data_start>

00000080 <.do_copy_data_loop>:
  80:	05 90       	lpm	r0, Z+
  82:	0d 92       	st	X+, r0

00000084 <.do_copy_data_start>:
  84:	a0 31       	cpi	r26, 0x10	; 16
  86:	b1 07       	cpc	r27, r17
  88:	d9 f7       	brne	.-10     	; 0x80 <.do_copy_data_loop>

0000008a <__do_clear_bss>:
  8a:	13 e0       	ldi	r17, 0x03	; 3
  8c:	a0 e1       	ldi	r26, 0x10	; 16
  8e:	b1 e0       	ldi	r27, 0x01	; 1
  90:	01 c0       	rjmp	.+2      	; 0x94 <.do_clear_bss_start>

00000092 <.do_clear_bss_loop>:
  92:	1d 92       	st	X+, r1

00000094 <.do_clear_bss_start>:
  94:	a5 3d       	cpi	r26, 0xD5	; 213
  96:	b1 07       	cpc	r27, r17
  98:	e1 f7       	brne	.-8      	; 0x92 <.do_clear_bss_loop>
  9a:	0e 94 b2 01 	call	0x364	; 0x364 <main>
  9e:	0c 94 09 03 	jmp	0x612	; 0x612 <_exit>

000000a2 <__bad_interrupt>:
  a2:	0c 94 00 00 	jmp	0	; 0x0 <__vectors>

000000a6 <__vector_21>:
  a6:	1f 92       	push	r1
  a8:	0f 92       	push	r0
  aa:	0f b6       	in	r0, 0x3f	; 63
  ac:	0f 92       	push	r0
  ae:	11 24       	eor	r1, r1
  b0:	0f 90       	pop	r0
  b2:	0f be       	out	0x3f, r0	; 63
  b4:	0f 90       	pop	r0
  b6:	1f 90       	pop	r1
  b8:	18 95       	reti

000000ba <adc_start>:
  ba:	90 91 7a 00 	lds	r25, 0x007A
  be:	97 60       	ori	r25, 0x07	; 7
  c0:	90 93 7a 00 	sts	0x007A, r25
  c4:	90 91 7c 00 	lds	r25, 0x007C
  c8:	90 64       	ori	r25, 0x40	; 64
  ca:	90 93 7c 00 	sts	0x007C, r25
  ce:	88 23       	and	r24, r24
  d0:	29 f0       	breq	.+10     	; 0xdc <adc_start+0x22>
  d2:	80 91 7c 00 	lds	r24, 0x007C
  d6:	80 62       	ori	r24, 0x20	; 32
  d8:	80 93 7c 00 	sts	0x007C, r24
  dc:	80 91 7a 00 	lds	r24, 0x007A
  e0:	80 62       	ori	r24, 0x20	; 32
  e2:	80 93 7a 00 	sts	0x007A, r24
  e6:	80 91 7a 00 	lds	r24, 0x007A
  ea:	80 68       	ori	r24, 0x80	; 128
  ec:	80 93 7a 00 	sts	0x007A, r24
  f0:	80 91 7a 00 	lds	r24, 0x007A
  f4:	88 60       	ori	r24, 0x08	; 8
  f6:	80 93 7a 00 	sts	0x007A, r24
  fa:	78 94       	sei
  fc:	80 91 7a 00 	lds	r24, 0x007A
 100:	80 64       	ori	r24, 0x40	; 64
 102:	80 93 7a 00 	sts	0x007A, r24
 106:	08 95       	ret

00000108 <adc_stop>:
 108:	ea e7       	ldi	r30, 0x7A	; 122
 10a:	f0 e0       	ldi	r31, 0x00	; 0
 10c:	80 81       	ld	r24, Z
 10e:	8f 7b       	andi	r24, 0xBF	; 191
 110:	80 83       	st	Z, r24
 112:	08 95       	ret

00000114 <adc_change>:
 114:	98 2f       	mov	r25, r24
 116:	80 91 7a 00 	lds	r24, 0x007A
 11a:	8f 7b       	andi	r24, 0xBF	; 191
 11c:	80 93 7a 00 	sts	0x007A, r24
 120:	94 33       	cpi	r25, 0x34	; 52
 122:	c9 f1       	breq	.+114    	; 0x196 <adc_change+0x82>
 124:	95 33       	cpi	r25, 0x35	; 53
 126:	74 f4       	brge	.+28     	; 0x144 <adc_change+0x30>
 128:	91 33       	cpi	r25, 0x31	; 49
 12a:	d1 f0       	breq	.+52     	; 0x160 <adc_change+0x4c>
 12c:	92 33       	cpi	r25, 0x32	; 50
 12e:	24 f4       	brge	.+8      	; 0x138 <adc_change+0x24>
 130:	90 33       	cpi	r25, 0x30	; 48
 132:	09 f0       	breq	.+2      	; 0x136 <adc_change+0x22>
 134:	5e c0       	rjmp	.+188    	; 0x1f2 <adc_change+0xde>
 136:	10 c0       	rjmp	.+32     	; 0x158 <adc_change+0x44>
 138:	92 33       	cpi	r25, 0x32	; 50
 13a:	d9 f0       	breq	.+54     	; 0x172 <adc_change+0x5e>
 13c:	93 33       	cpi	r25, 0x33	; 51
 13e:	09 f0       	breq	.+2      	; 0x142 <adc_change+0x2e>
 140:	58 c0       	rjmp	.+176    	; 0x1f2 <adc_change+0xde>
 142:	20 c0       	rjmp	.+64     	; 0x184 <adc_change+0x70>
 144:	96 33       	cpi	r25, 0x36	; 54
 146:	c9 f1       	breq	.+114    	; 0x1ba <adc_change+0xa6>
 148:	96 33       	cpi	r25, 0x36	; 54
 14a:	4c f1       	brlt	.+82     	; 0x19e <adc_change+0x8a>
 14c:	97 33       	cpi	r25, 0x37	; 55
 14e:	f1 f1       	breq	.+124    	; 0x1cc <adc_change+0xb8>
 150:	98 33       	cpi	r25, 0x38	; 56
 152:	09 f0       	breq	.+2      	; 0x156 <adc_change+0x42>
 154:	4e c0       	rjmp	.+156    	; 0x1f2 <adc_change+0xde>
 156:	43 c0       	rjmp	.+134    	; 0x1de <adc_change+0xca>
 158:	80 91 7c 00 	lds	r24, 0x007C
 15c:	80 7f       	andi	r24, 0xF0	; 240
 15e:	47 c0       	rjmp	.+142    	; 0x1ee <adc_change+0xda>
 160:	80 91 7c 00 	lds	r24, 0x007C
 164:	81 60       	ori	r24, 0x01	; 1
 166:	80 93 7c 00 	sts	0x007C, r24
 16a:	80 91 7c 00 	lds	r24, 0x007C
 16e:	81 7f       	andi	r24, 0xF1	; 241
 170:	3e c0       	rjmp	.+124    	; 0x1ee <adc_change+0xda>
 172:	80 91 7c 00 	lds	r24, 0x007C
 176:	8e 7f       	andi	r24, 0xFE	; 254
 178:	80 93 7c 00 	sts	0x007C, r24
 17c:	80 91 7c 00 	lds	r24, 0x007C
 180:	82 60       	ori	r24, 0x02	; 2
 182:	03 c0       	rjmp	.+6      	; 0x18a <adc_change+0x76>
 184:	80 91 7c 00 	lds	r24, 0x007C
 188:	83 60       	ori	r24, 0x03	; 3
 18a:	80 93 7c 00 	sts	0x007C, r24
 18e:	80 91 7c 00 	lds	r24, 0x007C
 192:	83 7f       	andi	r24, 0xF3	; 243
 194:	2c c0       	rjmp	.+88     	; 0x1ee <adc_change+0xda>
 196:	80 91 7c 00 	lds	r24, 0x007C
 19a:	8c 7f       	andi	r24, 0xFC	; 252
 19c:	08 c0       	rjmp	.+16     	; 0x1ae <adc_change+0x9a>
 19e:	80 91 7c 00 	lds	r24, 0x007C
 1a2:	81 60       	ori	r24, 0x01	; 1
 1a4:	80 93 7c 00 	sts	0x007C, r24
 1a8:	80 91 7c 00 	lds	r24, 0x007C
 1ac:	8d 7f       	andi	r24, 0xFD	; 253
 1ae:	80 93 7c 00 	sts	0x007C, r24
 1b2:	80 91 7c 00 	lds	r24, 0x007C
 1b6:	84 60       	ori	r24, 0x04	; 4
 1b8:	0c c0       	rjmp	.+24     	; 0x1d2 <adc_change+0xbe>
 1ba:	80 91 7c 00 	lds	r24, 0x007C
 1be:	8e 7f       	andi	r24, 0xFE	; 254
 1c0:	80 93 7c 00 	sts	0x007C, r24
 1c4:	80 91 7c 00 	lds	r24, 0x007C
 1c8:	86 60       	ori	r24, 0x06	; 6
 1ca:	03 c0       	rjmp	.+6      	; 0x1d2 <adc_change+0xbe>
 1cc:	80 91 7c 00 	lds	r24, 0x007C
 1d0:	87 60       	ori	r24, 0x07	; 7
 1d2:	80 93 7c 00 	sts	0x007C, r24
 1d6:	80 91 7c 00 	lds	r24, 0x007C
 1da:	87 7f       	andi	r24, 0xF7	; 247
 1dc:	08 c0       	rjmp	.+16     	; 0x1ee <adc_change+0xda>
 1de:	80 91 7c 00 	lds	r24, 0x007C
 1e2:	88 7f       	andi	r24, 0xF8	; 248
 1e4:	80 93 7c 00 	sts	0x007C, r24
 1e8:	80 91 7c 00 	lds	r24, 0x007C
 1ec:	88 60       	ori	r24, 0x08	; 8
 1ee:	80 93 7c 00 	sts	0x007C, r24
 1f2:	80 91 7a 00 	lds	r24, 0x007A
 1f6:	80 64       	ori	r24, 0x40	; 64
 1f8:	80 93 7a 00 	sts	0x007A, r24
 1fc:	08 95       	ret

000001fe <twi_start>:
 1fe:	10 92 b9 00 	sts	0x00B9, r1
 202:	88 e4       	ldi	r24, 0x48	; 72
 204:	80 93 b8 00 	sts	0x00B8, r24
 208:	08 95       	ret

0000020a <twi_tran>:
 20a:	81 30       	cpi	r24, 0x01	; 1
 20c:	39 f0       	breq	.+14     	; 0x21c <twi_tran+0x12>
 20e:	81 30       	cpi	r24, 0x01	; 1
 210:	18 f0       	brcs	.+6      	; 0x218 <twi_tran+0xe>
 212:	82 30       	cpi	r24, 0x02	; 2
 214:	61 f4       	brne	.+24     	; 0x22e <twi_tran+0x24>
 216:	06 c0       	rjmp	.+12     	; 0x224 <twi_tran+0x1a>
 218:	84 ea       	ldi	r24, 0xA4	; 164
 21a:	01 c0       	rjmp	.+2      	; 0x21e <twi_tran+0x14>
 21c:	84 e8       	ldi	r24, 0x84	; 132
 21e:	80 93 bc 00 	sts	0x00BC, r24
 222:	05 c0       	rjmp	.+10     	; 0x22e <twi_tran+0x24>
 224:	84 e9       	ldi	r24, 0x94	; 148
 226:	80 93 bc 00 	sts	0x00BC, r24
 22a:	80 e0       	ldi	r24, 0x00	; 0
 22c:	08 95       	ret
 22e:	80 91 bc 00 	lds	r24, 0x00BC
 232:	87 ff       	sbrs	r24, 7
 234:	fc cf       	rjmp	.-8      	; 0x22e <twi_tran+0x24>
 236:	80 91 b9 00 	lds	r24, 0x00B9
 23a:	88 7f       	andi	r24, 0xF8	; 248
 23c:	08 95       	ret

0000023e <twi_mcp_dac>:
 23e:	df 92       	push	r13
 240:	ef 92       	push	r14
 242:	ff 92       	push	r15
 244:	0f 93       	push	r16
 246:	1f 93       	push	r17
 248:	08 2f       	mov	r16, r24
 24a:	e6 2e       	mov	r14, r22
 24c:	d7 2e       	mov	r13, r23
 24e:	f4 2e       	mov	r15, r20
 250:	10 e0       	ldi	r17, 0x00	; 0
 252:	1f 5f       	subi	r17, 0xFF	; 255
 254:	13 33       	cpi	r17, 0x33	; 51
 256:	19 f4       	brne	.+6      	; 0x25e <twi_mcp_dac+0x20>
 258:	2f ef       	ldi	r18, 0xFF	; 255
 25a:	3f ef       	ldi	r19, 0xFF	; 255
 25c:	53 c0       	rjmp	.+166    	; 0x304 <twi_mcp_dac+0xc6>
 25e:	80 e0       	ldi	r24, 0x00	; 0
 260:	0e 94 05 01 	call	0x20a	; 0x20a <twi_tran>
 264:	88 33       	cpi	r24, 0x38	; 56
 266:	a9 f3       	breq	.-22     	; 0x252 <twi_mcp_dac+0x14>
 268:	88 30       	cpi	r24, 0x08	; 8
 26a:	19 f0       	breq	.+6      	; 0x272 <twi_mcp_dac+0x34>
 26c:	80 31       	cpi	r24, 0x10	; 16
 26e:	09 f0       	breq	.+2      	; 0x272 <twi_mcp_dac+0x34>
 270:	41 c0       	rjmp	.+130    	; 0x2f4 <twi_mcp_dac+0xb6>
 272:	00 93 bb 00 	sts	0x00BB, r16
 276:	81 e0       	ldi	r24, 0x01	; 1
 278:	0e 94 05 01 	call	0x20a	; 0x20a <twi_tran>
 27c:	80 32       	cpi	r24, 0x20	; 32
 27e:	49 f3       	breq	.-46     	; 0x252 <twi_mcp_dac+0x14>
 280:	88 33       	cpi	r24, 0x38	; 56
 282:	39 f3       	breq	.-50     	; 0x252 <twi_mcp_dac+0x14>
 284:	88 31       	cpi	r24, 0x18	; 24
 286:	b1 f5       	brne	.+108    	; 0x2f4 <twi_mcp_dac+0xb6>
 288:	ff 20       	and	r15, r15
 28a:	11 f0       	breq	.+4      	; 0x290 <twi_mcp_dac+0x52>
 28c:	80 e6       	ldi	r24, 0x60	; 96
 28e:	01 c0       	rjmp	.+2      	; 0x292 <twi_mcp_dac+0x54>
 290:	80 e4       	ldi	r24, 0x40	; 64
 292:	80 93 bb 00 	sts	0x00BB, r24
 296:	81 e0       	ldi	r24, 0x01	; 1
 298:	0e 94 05 01 	call	0x20a	; 0x20a <twi_tran>
 29c:	88 32       	cpi	r24, 0x28	; 40
 29e:	51 f5       	brne	.+84     	; 0x2f4 <twi_mcp_dac+0xb6>
 2a0:	e0 92 bb 00 	sts	0x00BB, r14
 2a4:	81 e0       	ldi	r24, 0x01	; 1
 2a6:	0e 94 05 01 	call	0x20a	; 0x20a <twi_tran>
 2aa:	88 32       	cpi	r24, 0x28	; 40
 2ac:	19 f5       	brne	.+70     	; 0x2f4 <twi_mcp_dac+0xb6>
 2ae:	d0 92 bb 00 	sts	0x00BB, r13
 2b2:	81 e0       	ldi	r24, 0x01	; 1
 2b4:	0e 94 05 01 	call	0x20a	; 0x20a <twi_tran>
 2b8:	88 32       	cpi	r24, 0x28	; 40
 2ba:	e1 f4       	brne	.+56     	; 0x2f4 <twi_mcp_dac+0xb6>
 2bc:	ff 20       	and	r15, r15
 2be:	11 f0       	breq	.+4      	; 0x2c4 <twi_mcp_dac+0x86>
 2c0:	80 e6       	ldi	r24, 0x60	; 96
 2c2:	01 c0       	rjmp	.+2      	; 0x2c6 <twi_mcp_dac+0x88>
 2c4:	80 e4       	ldi	r24, 0x40	; 64
 2c6:	80 93 bb 00 	sts	0x00BB, r24
 2ca:	81 e0       	ldi	r24, 0x01	; 1
 2cc:	0e 94 05 01 	call	0x20a	; 0x20a <twi_tran>
 2d0:	88 32       	cpi	r24, 0x28	; 40
 2d2:	81 f4       	brne	.+32     	; 0x2f4 <twi_mcp_dac+0xb6>
 2d4:	e0 92 bb 00 	sts	0x00BB, r14
 2d8:	81 e0       	ldi	r24, 0x01	; 1
 2da:	0e 94 05 01 	call	0x20a	; 0x20a <twi_tran>
 2de:	88 32       	cpi	r24, 0x28	; 40
 2e0:	49 f4       	brne	.+18     	; 0x2f4 <twi_mcp_dac+0xb6>
 2e2:	d0 92 bb 00 	sts	0x00BB, r13
 2e6:	81 e0       	ldi	r24, 0x01	; 1
 2e8:	0e 94 05 01 	call	0x20a	; 0x20a <twi_tran>
 2ec:	88 32       	cpi	r24, 0x28	; 40
 2ee:	11 f4       	brne	.+4      	; 0x2f4 <twi_mcp_dac+0xb6>
 2f0:	11 e0       	ldi	r17, 0x01	; 1
 2f2:	01 c0       	rjmp	.+2      	; 0x2f6 <twi_mcp_dac+0xb8>
 2f4:	1f ef       	ldi	r17, 0xFF	; 255
 2f6:	82 e0       	ldi	r24, 0x02	; 2
 2f8:	0e 94 05 01 	call	0x20a	; 0x20a <twi_tran>
 2fc:	21 2f       	mov	r18, r17
 2fe:	33 27       	eor	r19, r19
 300:	27 fd       	sbrc	r18, 7
 302:	30 95       	com	r19
 304:	c9 01       	movw	r24, r18
 306:	1f 91       	pop	r17
 308:	0f 91       	pop	r16
 30a:	ff 90       	pop	r15
 30c:	ef 90       	pop	r14
 30e:	df 90       	pop	r13
 310:	08 95       	ret

00000312 <twi_mcp_read>:
 312:	0f 93       	push	r16
 314:	1f 93       	push	r17
 316:	10 e0       	ldi	r17, 0x00	; 0
 318:	08 2f       	mov	r16, r24
 31a:	01 60       	ori	r16, 0x01	; 1
 31c:	1f 5f       	subi	r17, 0xFF	; 255
 31e:	13 33       	cpi	r17, 0x33	; 51
 320:	e9 f0       	breq	.+58     	; 0x35c <twi_mcp_read+0x4a>
 322:	80 e0       	ldi	r24, 0x00	; 0
 324:	0e 94 05 01 	call	0x20a	; 0x20a <twi_tran>
 328:	88 33       	cpi	r24, 0x38	; 56
 32a:	c1 f3       	breq	.-16     	; 0x31c <twi_mcp_read+0xa>
 32c:	88 30       	cpi	r24, 0x08	; 8
 32e:	11 f0       	breq	.+4      	; 0x334 <twi_mcp_read+0x22>
 330:	80 31       	cpi	r24, 0x10	; 16
 332:	89 f4       	brne	.+34     	; 0x356 <twi_mcp_read+0x44>
 334:	00 93 bb 00 	sts	0x00BB, r16
 338:	81 e0       	ldi	r24, 0x01	; 1
 33a:	0e 94 05 01 	call	0x20a	; 0x20a <twi_tran>
 33e:	80 32       	cpi	r24, 0x20	; 32
 340:	69 f3       	breq	.-38     	; 0x31c <twi_mcp_read+0xa>
 342:	88 33       	cpi	r24, 0x38	; 56
 344:	59 f3       	breq	.-42     	; 0x31c <twi_mcp_read+0xa>
 346:	88 31       	cpi	r24, 0x18	; 24
 348:	31 f4       	brne	.+12     	; 0x356 <twi_mcp_read+0x44>
 34a:	80 91 bb 00 	lds	r24, 0x00BB
 34e:	80 93 15 01 	sts	0x0115, r24
 352:	10 92 16 01 	sts	0x0116, r1
 356:	82 e0       	ldi	r24, 0x02	; 2
 358:	0e 94 05 01 	call	0x20a	; 0x20a <twi_tran>
 35c:	8f ef       	ldi	r24, 0xFF	; 255
 35e:	1f 91       	pop	r17
 360:	0f 91       	pop	r16
 362:	08 95       	ret

00000364 <main>:
 364:	0f 93       	push	r16
 366:	1f 93       	push	r17
 368:	cf 93       	push	r28
 36a:	df 93       	push	r29
 36c:	52 9a       	sbi	0x0a, 2	; 10
 36e:	5a 9a       	sbi	0x0b, 2	; 11
 370:	0e 94 f6 01 	call	0x3ec	; 0x3ec <pwm_setup_all>
 374:	80 e0       	ldi	r24, 0x00	; 0
 376:	0e 94 5d 00 	call	0xba	; 0xba <adc_start>
 37a:	0e 94 68 02 	call	0x4d0	; 0x4d0 <uart_start>
 37e:	0e 94 ff 00 	call	0x1fe	; 0x1fe <twi_start>
 382:	82 e3       	ldi	r24, 0x32	; 50
 384:	0e 94 8a 00 	call	0x114	; 0x114 <adc_change>
 388:	80 e0       	ldi	r24, 0x00	; 0
 38a:	91 e0       	ldi	r25, 0x01	; 1
 38c:	0e 94 ac 02 	call	0x558	; 0x558 <uart_sendchar>
 390:	0e 94 c1 02 	call	0x582	; 0x582 <uart_get>
 394:	80 93 10 01 	sts	0x0110, r24
 398:	0e 94 86 02 	call	0x50c	; 0x50c <uart_sendint>
 39c:	00 e9       	ldi	r16, 0x90	; 144
 39e:	11 e0       	ldi	r17, 0x01	; 1
 3a0:	80 91 78 00 	lds	r24, 0x0078
 3a4:	90 91 79 00 	lds	r25, 0x0079
 3a8:	d9 2f       	mov	r29, r25
 3aa:	c0 e0       	ldi	r28, 0x00	; 0
 3ac:	be 01       	movw	r22, r28
 3ae:	68 0f       	add	r22, r24
 3b0:	71 1d       	adc	r23, r1
 3b2:	70 93 14 01 	sts	0x0114, r23
 3b6:	60 93 13 01 	sts	0x0113, r22
 3ba:	80 ec       	ldi	r24, 0xC0	; 192
 3bc:	90 e0       	ldi	r25, 0x00	; 0
 3be:	40 e0       	ldi	r20, 0x00	; 0
 3c0:	0e 94 1f 01 	call	0x23e	; 0x23e <twi_mcp_dac>
 3c4:	80 91 13 01 	lds	r24, 0x0113
 3c8:	90 91 14 01 	lds	r25, 0x0114
 3cc:	0e 94 37 02 	call	0x46e	; 0x46e <pwm1A>
 3d0:	80 91 13 01 	lds	r24, 0x0113
 3d4:	90 91 14 01 	lds	r25, 0x0114
 3d8:	0e 94 96 02 	call	0x52c	; 0x52c <uart_sendint16>
 3dc:	84 ef       	ldi	r24, 0xF4	; 244
 3de:	91 e0       	ldi	r25, 0x01	; 1
 3e0:	f8 01       	movw	r30, r16
 3e2:	31 97       	sbiw	r30, 0x01	; 1
 3e4:	f1 f7       	brne	.-4      	; 0x3e2 <main+0x7e>
 3e6:	01 97       	sbiw	r24, 0x01	; 1
 3e8:	d9 f7       	brne	.-10     	; 0x3e0 <main+0x7c>
 3ea:	da cf       	rjmp	.-76     	; 0x3a0 <main+0x3c>

000003ec <pwm_setup_all>:
 3ec:	85 b5       	in	r24, 0x25	; 37
 3ee:	83 60       	ori	r24, 0x03	; 3
 3f0:	85 bd       	out	0x25, r24	; 37
 3f2:	84 b5       	in	r24, 0x24	; 36
 3f4:	81 60       	ori	r24, 0x01	; 1
 3f6:	84 bd       	out	0x24, r24	; 36
 3f8:	55 9a       	sbi	0x0a, 5	; 10
 3fa:	56 9a       	sbi	0x0a, 6	; 10
 3fc:	e1 e8       	ldi	r30, 0x81	; 129
 3fe:	f0 e0       	ldi	r31, 0x00	; 0
 400:	80 81       	ld	r24, Z
 402:	83 60       	ori	r24, 0x03	; 3
 404:	80 83       	st	Z, r24
 406:	e0 e8       	ldi	r30, 0x80	; 128
 408:	f0 e0       	ldi	r31, 0x00	; 0
 40a:	80 81       	ld	r24, Z
 40c:	81 60       	ori	r24, 0x01	; 1
 40e:	80 83       	st	Z, r24
 410:	21 9a       	sbi	0x04, 1	; 4
 412:	22 9a       	sbi	0x04, 2	; 4
 414:	e1 eb       	ldi	r30, 0xB1	; 177
 416:	f0 e0       	ldi	r31, 0x00	; 0
 418:	80 81       	ld	r24, Z
 41a:	84 60       	ori	r24, 0x04	; 4
 41c:	80 83       	st	Z, r24
 41e:	e0 eb       	ldi	r30, 0xB0	; 176
 420:	f0 e0       	ldi	r31, 0x00	; 0
 422:	80 81       	ld	r24, Z
 424:	81 60       	ori	r24, 0x01	; 1
 426:	80 83       	st	Z, r24
 428:	53 9a       	sbi	0x0a, 3	; 10
 42a:	23 9a       	sbi	0x04, 3	; 4
 42c:	08 95       	ret

0000042e <pwm_setup0>:
 42e:	85 b5       	in	r24, 0x25	; 37
 430:	83 60       	ori	r24, 0x03	; 3
 432:	85 bd       	out	0x25, r24	; 37
 434:	84 b5       	in	r24, 0x24	; 36
 436:	81 60       	ori	r24, 0x01	; 1
 438:	84 bd       	out	0x24, r24	; 36
 43a:	55 9a       	sbi	0x0a, 5	; 10
 43c:	56 9a       	sbi	0x0a, 6	; 10
 43e:	08 95       	ret

00000440 <pwm0A>:
 440:	94 b5       	in	r25, 0x24	; 36
 442:	90 68       	ori	r25, 0x80	; 128
 444:	94 bd       	out	0x24, r25	; 36
 446:	87 bd       	out	0x27, r24	; 39
 448:	08 95       	ret

0000044a <pwm0B>:
 44a:	94 b5       	in	r25, 0x24	; 36
 44c:	90 62       	ori	r25, 0x20	; 32
 44e:	94 bd       	out	0x24, r25	; 36
 450:	88 bd       	out	0x28, r24	; 40
 452:	08 95       	ret

00000454 <pwm_setup1>:
 454:	e1 e8       	ldi	r30, 0x81	; 129
 456:	f0 e0       	ldi	r31, 0x00	; 0
 458:	80 81       	ld	r24, Z
 45a:	83 60       	ori	r24, 0x03	; 3
 45c:	80 83       	st	Z, r24
 45e:	e0 e8       	ldi	r30, 0x80	; 128
 460:	f0 e0       	ldi	r31, 0x00	; 0
 462:	80 81       	ld	r24, Z
 464:	81 60       	ori	r24, 0x01	; 1
 466:	80 83       	st	Z, r24
 468:	21 9a       	sbi	0x04, 1	; 4
 46a:	22 9a       	sbi	0x04, 2	; 4
 46c:	08 95       	ret

0000046e <pwm1A>:
 46e:	e0 e8       	ldi	r30, 0x80	; 128
 470:	f0 e0       	ldi	r31, 0x00	; 0
 472:	20 81       	ld	r18, Z
 474:	20 68       	ori	r18, 0x80	; 128
 476:	20 83       	st	Z, r18
 478:	90 93 89 00 	sts	0x0089, r25
 47c:	80 93 88 00 	sts	0x0088, r24
 480:	08 95       	ret

00000482 <pwm1B>:
 482:	e0 e8       	ldi	r30, 0x80	; 128
 484:	f0 e0       	ldi	r31, 0x00	; 0
 486:	20 81       	ld	r18, Z
 488:	20 62       	ori	r18, 0x20	; 32
 48a:	20 83       	st	Z, r18
 48c:	90 93 8b 00 	sts	0x008B, r25
 490:	80 93 8a 00 	sts	0x008A, r24
 494:	08 95       	ret

00000496 <pwm_setup2>:
 496:	e1 eb       	ldi	r30, 0xB1	; 177
 498:	f0 e0       	ldi	r31, 0x00	; 0
 49a:	80 81       	ld	r24, Z
 49c:	84 60       	ori	r24, 0x04	; 4
 49e:	80 83       	st	Z, r24
 4a0:	e0 eb       	ldi	r30, 0xB0	; 176
 4a2:	f0 e0       	ldi	r31, 0x00	; 0
 4a4:	80 81       	ld	r24, Z
 4a6:	81 60       	ori	r24, 0x01	; 1
 4a8:	80 83       	st	Z, r24
 4aa:	53 9a       	sbi	0x0a, 3	; 10
 4ac:	23 9a       	sbi	0x04, 3	; 4
 4ae:	08 95       	ret

000004b0 <pwm2A>:
 4b0:	e0 eb       	ldi	r30, 0xB0	; 176
 4b2:	f0 e0       	ldi	r31, 0x00	; 0
 4b4:	90 81       	ld	r25, Z
 4b6:	90 68       	ori	r25, 0x80	; 128
 4b8:	90 83       	st	Z, r25
 4ba:	80 93 b3 00 	sts	0x00B3, r24
 4be:	08 95       	ret

000004c0 <pwm2B>:
 4c0:	e0 eb       	ldi	r30, 0xB0	; 176
 4c2:	f0 e0       	ldi	r31, 0x00	; 0
 4c4:	90 81       	ld	r25, Z
 4c6:	90 62       	ori	r25, 0x20	; 32
 4c8:	90 83       	st	Z, r25
 4ca:	80 93 b4 00 	sts	0x00B4, r24
 4ce:	08 95       	ret

000004d0 <uart_start>:
 4d0:	80 91 c1 00 	lds	r24, 0x00C1
 4d4:	88 61       	ori	r24, 0x18	; 24
 4d6:	80 93 c1 00 	sts	0x00C1, r24
 4da:	80 91 c2 00 	lds	r24, 0x00C2
 4de:	86 60       	ori	r24, 0x06	; 6
 4e0:	80 93 c2 00 	sts	0x00C2, r24
 4e4:	87 e6       	ldi	r24, 0x67	; 103
 4e6:	80 93 c4 00 	sts	0x00C4, r24
 4ea:	10 92 c5 00 	sts	0x00C5, r1
 4ee:	80 91 c1 00 	lds	r24, 0x00C1
 4f2:	80 68       	ori	r24, 0x80	; 128
 4f4:	80 93 c1 00 	sts	0x00C1, r24
 4f8:	78 94       	sei
 4fa:	80 91 c0 00 	lds	r24, 0x00C0
 4fe:	85 ff       	sbrs	r24, 5
 500:	fc cf       	rjmp	.-8      	; 0x4fa <uart_start+0x2a>
 502:	8a e0       	ldi	r24, 0x0A	; 10
 504:	91 e0       	ldi	r25, 0x01	; 1
 506:	80 93 c6 00 	sts	0x00C6, r24
 50a:	08 95       	ret

0000050c <uart_sendint>:
 50c:	98 2f       	mov	r25, r24
 50e:	80 91 c0 00 	lds	r24, 0x00C0
 512:	85 ff       	sbrs	r24, 5
 514:	fc cf       	rjmp	.-8      	; 0x50e <uart_sendint+0x2>
 516:	90 93 c6 00 	sts	0x00C6, r25
 51a:	80 91 c0 00 	lds	r24, 0x00C0
 51e:	85 ff       	sbrs	r24, 5
 520:	fc cf       	rjmp	.-8      	; 0x51a <uart_sendint+0xe>
 522:	8d e0       	ldi	r24, 0x0D	; 13
 524:	91 e0       	ldi	r25, 0x01	; 1
 526:	80 93 c6 00 	sts	0x00C6, r24
 52a:	08 95       	ret

0000052c <uart_sendint16>:
 52c:	28 2f       	mov	r18, r24
 52e:	80 91 c0 00 	lds	r24, 0x00C0
 532:	85 ff       	sbrs	r24, 5
 534:	fc cf       	rjmp	.-8      	; 0x52e <uart_sendint16+0x2>
 536:	20 93 c6 00 	sts	0x00C6, r18
 53a:	80 91 c0 00 	lds	r24, 0x00C0
 53e:	85 ff       	sbrs	r24, 5
 540:	fc cf       	rjmp	.-8      	; 0x53a <uart_sendint16+0xe>
 542:	90 93 c6 00 	sts	0x00C6, r25
 546:	80 91 c0 00 	lds	r24, 0x00C0
 54a:	85 ff       	sbrs	r24, 5
 54c:	fc cf       	rjmp	.-8      	; 0x546 <uart_sendint16+0x1a>
 54e:	8d e0       	ldi	r24, 0x0D	; 13
 550:	91 e0       	ldi	r25, 0x01	; 1
 552:	80 93 c6 00 	sts	0x00C6, r24
 556:	08 95       	ret

00000558 <uart_sendchar>:
 558:	fc 01       	movw	r30, r24
 55a:	07 c0       	rjmp	.+14     	; 0x56a <uart_sendchar+0x12>
 55c:	80 91 c0 00 	lds	r24, 0x00C0
 560:	85 ff       	sbrs	r24, 5
 562:	fc cf       	rjmp	.-8      	; 0x55c <uart_sendchar+0x4>
 564:	90 93 c6 00 	sts	0x00C6, r25
 568:	31 96       	adiw	r30, 0x01	; 1
 56a:	90 81       	ld	r25, Z
 56c:	99 23       	and	r25, r25
 56e:	b1 f7       	brne	.-20     	; 0x55c <uart_sendchar+0x4>
 570:	80 91 c0 00 	lds	r24, 0x00C0
 574:	85 ff       	sbrs	r24, 5
 576:	fc cf       	rjmp	.-8      	; 0x570 <uart_sendchar+0x18>
 578:	8d e0       	ldi	r24, 0x0D	; 13
 57a:	91 e0       	ldi	r25, 0x01	; 1
 57c:	80 93 c6 00 	sts	0x00C6, r24
 580:	08 95       	ret

00000582 <uart_get>:
 582:	80 91 c1 00 	lds	r24, 0x00C1
 586:	80 68       	ori	r24, 0x80	; 128
 588:	80 93 c1 00 	sts	0x00C1, r24
 58c:	78 94       	sei
 58e:	83 b7       	in	r24, 0x33	; 51
 590:	81 60       	ori	r24, 0x01	; 1
 592:	83 bf       	out	0x33, r24	; 51
 594:	88 95       	sleep
 596:	83 b7       	in	r24, 0x33	; 51
 598:	8e 7f       	andi	r24, 0xFE	; 254
 59a:	83 bf       	out	0x33, r24	; 51
 59c:	f8 94       	cli
 59e:	e0 91 11 01 	lds	r30, 0x0111
 5a2:	f0 91 12 01 	lds	r31, 0x0112
 5a6:	30 97       	sbiw	r30, 0x00	; 0
 5a8:	19 f4       	brne	.+6      	; 0x5b0 <uart_get+0x2e>
 5aa:	80 91 d4 03 	lds	r24, 0x03D4
 5ae:	03 c0       	rjmp	.+6      	; 0x5b6 <uart_get+0x34>
 5b0:	e8 5e       	subi	r30, 0xE8	; 232
 5b2:	fe 4f       	sbci	r31, 0xFE	; 254
 5b4:	80 81       	ld	r24, Z
 5b6:	8d 30       	cpi	r24, 0x0D	; 13
 5b8:	09 f4       	brne	.+2      	; 0x5bc <uart_get+0x3a>
 5ba:	8a e0       	ldi	r24, 0x0A	; 10
 5bc:	08 95       	ret

000005be <__vector_18>:
 5be:	1f 92       	push	r1
 5c0:	0f 92       	push	r0
 5c2:	0f b6       	in	r0, 0x3f	; 63
 5c4:	0f 92       	push	r0
 5c6:	11 24       	eor	r1, r1
 5c8:	2f 93       	push	r18
 5ca:	8f 93       	push	r24
 5cc:	9f 93       	push	r25
 5ce:	ef 93       	push	r30
 5d0:	ff 93       	push	r31
 5d2:	80 91 11 01 	lds	r24, 0x0111
 5d6:	90 91 12 01 	lds	r25, 0x0112
 5da:	20 91 c6 00 	lds	r18, 0x00C6
 5de:	fc 01       	movw	r30, r24
 5e0:	e7 5e       	subi	r30, 0xE7	; 231
 5e2:	fe 4f       	sbci	r31, 0xFE	; 254
 5e4:	20 83       	st	Z, r18
 5e6:	01 96       	adiw	r24, 0x01	; 1
 5e8:	90 93 12 01 	sts	0x0112, r25
 5ec:	80 93 11 01 	sts	0x0111, r24
 5f0:	8c 5b       	subi	r24, 0xBC	; 188
 5f2:	92 40       	sbci	r25, 0x02	; 2
 5f4:	21 f4       	brne	.+8      	; 0x5fe <__vector_18+0x40>
 5f6:	10 92 12 01 	sts	0x0112, r1
 5fa:	10 92 11 01 	sts	0x0111, r1
 5fe:	ff 91       	pop	r31
 600:	ef 91       	pop	r30
 602:	9f 91       	pop	r25
 604:	8f 91       	pop	r24
 606:	2f 91       	pop	r18
 608:	0f 90       	pop	r0
 60a:	0f be       	out	0x3f, r0	; 63
 60c:	0f 90       	pop	r0
 60e:	1f 90       	pop	r1
 610:	18 95       	reti

00000612 <_exit>:
 612:	f8 94       	cli

00000614 <__stop_program>:
 614:	ff cf       	rjmp	.-2      	; 0x614 <__stop_program>
